target datalayout = "e-m:e-p270:32:32-p271:32:32-p272:64:64-i64:64-i128:128-f80:128-n8:16:32:64-S128"
target triple = "x86_64-pc-linux-gnu"

%struct._object = type { %union.anon, ptr }
%union.anon = type { i64 }
%struct._odictobject = type { %struct.PyDictObject, ptr, ptr, ptr, i64, ptr, i64, ptr, ptr }
%struct.PyDictObject = type { %struct._object, i64, i64, ptr, ptr }
%struct._odictnode = type { ptr, i64, ptr, ptr }
%struct.anon = type { i32, i32 }

@_Py_NoneStruct = external global %struct._object, align 8

; Function Attrs: alwaysinline nounwind uwtable
define internal i32 @_Py_IsImmortal(ptr noundef %0) #4 {
  %2 = alloca ptr, align 8
  store ptr %0, ptr %2, align 8, !tbaa !42
  %3 = load ptr, ptr %2, align 8, !tbaa !42
  %4 = getelementptr inbounds nuw %struct._object, ptr %3, i32 0, i32 0
  %5 = getelementptr inbounds nuw %struct.anon, ptr %4, i32 0, i32 0
  %6 = load i32, ptr %5, align 8, !tbaa !74
  %7 = icmp slt i32 %6, 0
  %8 = zext i1 %7 to i32
  ret i32 %8
}

; Function Attrs: alwaysinline nounwind uwtable
define internal void @Py_DECREF(ptr noundef %0) #4 {
  %2 = alloca ptr, align 8
  store ptr %0, ptr %2, align 8, !tbaa !42
  %3 = load ptr, ptr %2, align 8, !tbaa !42
  %4 = call i32 @_Py_IsImmortal(ptr noundef %3)
  %5 = icmp ne i32 %4, 0
  br i1 %5, label %6, label %7

6:                                                ; preds = %1
  br label %16

7:                                                ; preds = %1
  %8 = load ptr, ptr %2, align 8, !tbaa !42
  %9 = getelementptr inbounds nuw %struct._object, ptr %8, i32 0, i32 0
  %10 = getelementptr inbounds nuw %struct.anon, ptr %9, i32 0, i32 0
  %11 = load i32, ptr %10, align 8, !tbaa !74
  %12 = add i32 %11, -1
  store i32 %12, ptr %10, align 8, !tbaa !74
  %13 = icmp eq i32 %12, 0
  br i1 %13, label %14, label %16

14:                                               ; preds = %7
  %15 = load ptr, ptr %2, align 8, !tbaa !42
  call void @_Py_Dealloc(ptr noundef %15)
  br label %16

16:                                               ; preds = %6, %14, %7
  ret void
}

; Function Attrs: nounwind uwtable
define internal void @_odict_clear_nodes(ptr noundef %0) #0 {
  %2 = alloca ptr, align 8
  %3 = alloca ptr, align 8
  %4 = alloca ptr, align 8
  store ptr %0, ptr %2, align 8, !tbaa !4
  call void @llvm.lifetime.start.p0(i64 8, ptr %3) #7
  call void @llvm.lifetime.start.p0(i64 8, ptr %4) #7
  %5 = load ptr, ptr %2, align 8, !tbaa !4
  %6 = getelementptr inbounds nuw %struct._odictobject, ptr %5, i32 0, i32 3
  %7 = load ptr, ptr %6, align 8, !tbaa !58
  call void @PyMem_Free(ptr noundef %7)
  %8 = load ptr, ptr %2, align 8, !tbaa !4
  %9 = getelementptr inbounds nuw %struct._odictobject, ptr %8, i32 0, i32 3
  store ptr null, ptr %9, align 8, !tbaa !58
  %10 = load ptr, ptr %2, align 8, !tbaa !4
  %11 = getelementptr inbounds nuw %struct._odictobject, ptr %10, i32 0, i32 4
  store i64 0, ptr %11, align 8, !tbaa !69
  %12 = load ptr, ptr %2, align 8, !tbaa !4
  %13 = getelementptr inbounds nuw %struct._odictobject, ptr %12, i32 0, i32 5
  store ptr null, ptr %13, align 8, !tbaa !70
  %14 = load ptr, ptr %2, align 8, !tbaa !4
  %15 = getelementptr inbounds nuw %struct._odictobject, ptr %14, i32 0, i32 1
  %16 = load ptr, ptr %15, align 8, !tbaa !45
  store ptr %16, ptr %3, align 8, !tbaa !46
  %17 = load ptr, ptr %2, align 8, !tbaa !4
  %18 = getelementptr inbounds nuw %struct._odictobject, ptr %17, i32 0, i32 1
  store ptr null, ptr %18, align 8, !tbaa !45
  %19 = load ptr, ptr %2, align 8, !tbaa !4
  %20 = getelementptr inbounds nuw %struct._odictobject, ptr %19, i32 0, i32 2
  store ptr null, ptr %20, align 8, !tbaa !71
  br label %21

21:                                               ; preds = %34, %1
  %22 = load ptr, ptr %3, align 8, !tbaa !46
  %23 = icmp ne ptr %22, null
  br i1 %23, label %24, label %36

24:                                               ; preds = %21
  %25 = load ptr, ptr %3, align 8, !tbaa !46
  %26 = getelementptr inbounds nuw %struct._odictnode, ptr %25, i32 0, i32 2
  %27 = load ptr, ptr %26, align 8, !tbaa !49
  store ptr %27, ptr %4, align 8, !tbaa !46
  br label %28

28:                                               ; preds = %24
  %29 = load ptr, ptr %3, align 8, !tbaa !46
  %30 = getelementptr inbounds nuw %struct._odictnode, ptr %29, i32 0, i32 0
  %31 = load ptr, ptr %30, align 8, !tbaa !47
  call void @Py_DECREF(ptr noundef %31)
  %32 = load ptr, ptr %3, align 8, !tbaa !46
  call void @PyMem_Free(ptr noundef %32)
  br label %33

33:                                               ; preds = %28
  br label %34

34:                                               ; preds = %33
  %35 = load ptr, ptr %4, align 8, !tbaa !46
  store ptr %35, ptr %3, align 8, !tbaa !46
  br label %21, !llvm.loop !72

36:                                               ; preds = %21
  %37 = load ptr, ptr %2, align 8, !tbaa !4
  %38 = getelementptr inbounds nuw %struct._odictobject, ptr %37, i32 0, i32 6
  %39 = load i64, ptr %38, align 8, !tbaa !73
  %40 = add i64 %39, 1
  store i64 %40, ptr %38, align 8, !tbaa !73
  call void @llvm.lifetime.end.p0(i64 8, ptr %4) #7
  call void @llvm.lifetime.end.p0(i64 8, ptr %3) #7
  ret void
}

; Function Attrs: nounwind uwtable
define internal ptr @odict_clear(ptr noundef %0, ptr noundef %1) #0 {
  %3 = alloca ptr, align 8
  %4 = alloca ptr, align 8
  store ptr %0, ptr %3, align 8, !tbaa !4
  store ptr %1, ptr %4, align 8, !tbaa !42
  %5 = load ptr, ptr %3, align 8, !tbaa !4
  call void @PyDict_Clear(ptr noundef %5)
  %6 = load ptr, ptr %3, align 8, !tbaa !4
  call void @_odict_clear_nodes(ptr noundef %6)
  ret ptr @_Py_NoneStruct
}