; Function Attrs: nounwind uwtable
define internal noundef nonnull ptr @odict_clear(ptr noundef %0, ptr readnone captures(none) %1) #0 {
  tail call void @PyDict_Clear(ptr noundef %0) #8
  %3 = getelementptr inbounds nuw i8, ptr %0, i64 64
  %4 = load ptr, ptr %3, align 8, !tbaa !40
  tail call void @PyMem_Free(ptr noundef %4) #8
  %5 = getelementptr inbounds nuw i8, ptr %0, i64 48
  tail call void @llvm.memset.p0.i64(ptr noundef nonnull align 8 dereferenceable(24) %3, i8 0, i64 24, i1 false)
  %6 = load ptr, ptr %5, align 8, !tbaa !41
  %.not13.i = icmp eq ptr %6, null
  tail call void @llvm.memset.p0.i64(ptr noundef nonnull align 8 dereferenceable(16) %5, i8 0, i64 16, i1 false)
  br i1 %.not13.i, label %_odict_clear_nodes.exit, label %.lr.ph.i

.lr.ph.i:                                         ; preds = %2, %Py_DECREF.exit.i
  %.014.i = phi ptr [ %8, %Py_DECREF.exit.i ], [ %6, %2 ]
  %7 = getelementptr inbounds nuw i8, ptr %.014.i, i64 16
  %8 = load ptr, ptr %7, align 8, !tbaa !42
  %9 = load ptr, ptr %.014.i, align 8, !tbaa !44
  %10 = load i32, ptr %9, align 8, !tbaa !38
  %.not.i.i = icmp sgt i32 %10, -1
  br i1 %.not.i.i, label %11, label %Py_DECREF.exit.i

11:                                               ; preds = %.lr.ph.i
  %12 = add nsw i32 %10, -1
  store i32 %12, ptr %9, align 8, !tbaa !38
  %13 = icmp eq i32 %12, 0
  br i1 %13, label %14, label %Py_DECREF.exit.i

14:                                               ; preds = %11
  tail call void @_Py_Dealloc(ptr noundef nonnull %9) #8
  br label %Py_DECREF.exit.i

Py_DECREF.exit.i:                                 ; preds = %14, %11, %.lr.ph.i
  tail call void @PyMem_Free(ptr noundef nonnull %.014.i) #8
  %.not.i = icmp eq ptr %8, null
  br i1 %.not.i, label %_odict_clear_nodes.exit, label %.lr.ph.i, !llvm.loop !45

_odict_clear_nodes.exit:                          ; preds = %Py_DECREF.exit.i, %2
  %15 = getelementptr inbounds nuw i8, ptr %0, i64 88
  %16 = load i64, ptr %15, align 8, !tbaa !47
  %17 = add i64 %16, 1
  store i64 %17, ptr %15, align 8, !tbaa !47
  ret ptr @_Py_NoneStruct
}